target datalayout = "e-m:e-p270:32:32-p271:32:32-p272:64:64-i64:64-i128:128-f80:128-n8:16:32:64-S128"
target triple = "x86_64-pc-linux-gnu"

%struct.lzma_stream = type { ptr, i64, i64, ptr, i64, i64, ptr, ptr, ptr, ptr, ptr, ptr, i64, i64, i64, i64, i32, i32 }
%struct.la_zstream = type { ptr, i64, i64, ptr, i64, i64, i32, ptr, i32, ptr, ptr, ptr }
%struct.lzma_options_lzma = type { i32, ptr, i32, i32, i32, i32, i32, i32, i32, i32, i32, i32, i32, i32, i32, i32, i32, i32, i32, i32, i32, i32, ptr, ptr }
%struct.lzma_filter = type { i64, ptr }

@.str.30 = private unnamed_addr constant [48 x i8] c"Internal error initializing compression library\00", align 1
@compression_init_encoder_lzma.lzma_init_data = internal constant %struct.lzma_stream zeroinitializer, align 8
@.str.35 = private unnamed_addr constant [38 x i8] c"Can't allocate memory for lzma stream\00", align 1
@.str.36 = private unnamed_addr constant [28 x i8] c"lzma_properties_size failed\00", align 1
@.str.37 = private unnamed_addr constant [23 x i8] c"Cannot allocate memory\00", align 1
@.str.38 = private unnamed_addr constant [30 x i8] c"lzma_properties_encode failed\00", align 1
@.str.39 = private unnamed_addr constant [72 x i8] c"Internal error initializing compression library: Cannot allocate memory\00", align 1
@.str.40 = private unnamed_addr constant [71 x i8] c"Internal error initializing compression library: It's a bug in liblzma\00", align 1

; Function Attrs: nounwind uwtable
define internal i32 @compression_end(ptr noundef %0, ptr noundef %1) #0 {
  %3 = alloca i32, align 4
  %4 = alloca ptr, align 8
  %5 = alloca ptr, align 8
  store ptr %0, ptr %4, align 8
  store ptr %1, ptr %5, align 8
  %6 = load ptr, ptr %5, align 8
  %7 = getelementptr inbounds %struct.la_zstream, ptr %6, i32 0, i32 8
  %8 = load i32, ptr %7, align 8
  %9 = icmp ne i32 %8, 0
  br i1 %9, label %10, label %24

10:                                               ; preds = %2
  %11 = load ptr, ptr %5, align 8
  %12 = getelementptr inbounds %struct.la_zstream, ptr %11, i32 0, i32 6
  store i32 0, ptr %12, align 8
  %13 = load ptr, ptr %5, align 8
  %14 = getelementptr inbounds %struct.la_zstream, ptr %13, i32 0, i32 7
  %15 = load ptr, ptr %14, align 8
  call void @free(ptr noundef %15) #10
  %16 = load ptr, ptr %5, align 8
  %17 = getelementptr inbounds %struct.la_zstream, ptr %16, i32 0, i32 7
  store ptr null, ptr %17, align 8
  %18 = load ptr, ptr %5, align 8
  %19 = getelementptr inbounds %struct.la_zstream, ptr %18, i32 0, i32 11
  %20 = load ptr, ptr %19, align 8
  %21 = load ptr, ptr %4, align 8
  %22 = load ptr, ptr %5, align 8
  %23 = call i32 %20(ptr noundef %21, ptr noundef %22)
  store i32 %23, ptr %3, align 4
  br label %25

24:                                               ; preds = %2
  store i32 0, ptr %3, align 4
  br label %25

25:                                               ; preds = %24, %10
  %26 = load i32, ptr %3, align 4
  ret i32 %26
}

; Function Attrs: nounwind uwtable
define internal i32 @compression_init_encoder_lzma(ptr noundef %0, ptr noundef %1, i32 noundef %2, i64 noundef %3) #0 {
  %5 = alloca i32, align 4
  %6 = alloca ptr, align 8
  %7 = alloca ptr, align 8
  %8 = alloca i32, align 4
  %9 = alloca i64, align 8
  %10 = alloca ptr, align 8
  %11 = alloca ptr, align 8
  %12 = alloca %struct.lzma_options_lzma, align 8
  %13 = alloca i32, align 4
  store ptr %0, ptr %6, align 8
  store ptr %1, ptr %7, align 8
  store i32 %2, ptr %8, align 4
  store i64 %3, ptr %9, align 8
  %14 = load ptr, ptr %7, align 8
  %15 = getelementptr inbounds %struct.la_zstream, ptr %14, i32 0, i32 8
  %16 = load i32, ptr %15, align 8
  %17 = icmp ne i32 %16, 0
  br i1 %17, label %18, label %22

18:                                               ; preds = %4
  %19 = load ptr, ptr %6, align 8
  %20 = load ptr, ptr %7, align 8
  %21 = call i32 @compression_end(ptr noundef %19, ptr noundef %20)
  br label %22

22:                                               ; preds = %18, %4
  %23 = call noalias ptr @calloc(i64 noundef 1, i64 noundef 168) #8
  store ptr %23, ptr %10, align 8
  %24 = load ptr, ptr %10, align 8
  %25 = icmp eq ptr %24, null
  br i1 %25, label %26, label %28

26:                                               ; preds = %22
  %27 = load ptr, ptr %6, align 8
  call void (ptr, i32, ptr, ...) @archive_set_error(ptr noundef %27, i32 noundef 12, ptr noundef @.str.35)
  store i32 -30, ptr %5, align 4
  br label %129

28:                                               ; preds = %22
  %29 = load ptr, ptr %10, align 8
  %30 = getelementptr inbounds %struct.lzma_stream, ptr %29, i64 1
  store ptr %30, ptr %11, align 8
  %31 = load i32, ptr %8, align 4
  %32 = icmp sgt i32 %31, 9
  br i1 %32, label %33, label %34

33:                                               ; preds = %28
  store i32 9, ptr %8, align 4
  br label %34

34:                                               ; preds = %33, %28
  %35 = load i32, ptr %8, align 4
  %36 = call zeroext i8 @lzma_lzma_preset(ptr noundef %12, i32 noundef %35) #10
  %37 = icmp ne i8 %36, 0
  br i1 %37, label %38, label %43

38:                                               ; preds = %34
  %39 = load ptr, ptr %10, align 8
  call void @free(ptr noundef %39) #10
  %40 = load ptr, ptr %7, align 8
  %41 = getelementptr inbounds %struct.la_zstream, ptr %40, i32 0, i32 9
  store ptr null, ptr %41, align 8
  %42 = load ptr, ptr %6, align 8
  call void (ptr, i32, ptr, ...) @archive_set_error(ptr noundef %42, i32 noundef 12, ptr noundef @.str.30)
  store i32 -30, ptr %5, align 4
  br label %129

43:                                               ; preds = %34
  %44 = load i64, ptr %9, align 8
  %45 = load ptr, ptr %11, align 8
  %46 = getelementptr inbounds %struct.lzma_filter, ptr %45, i64 0
  %47 = getelementptr inbounds %struct.lzma_filter, ptr %46, i32 0, i32 0
  store i64 %44, ptr %47, align 8
  %48 = load ptr, ptr %11, align 8
  %49 = getelementptr inbounds %struct.lzma_filter, ptr %48, i64 0
  %50 = getelementptr inbounds %struct.lzma_filter, ptr %49, i32 0, i32 1
  store ptr %12, ptr %50, align 8
  %51 = load ptr, ptr %11, align 8
  %52 = getelementptr inbounds %struct.lzma_filter, ptr %51, i64 1
  %53 = getelementptr inbounds %struct.lzma_filter, ptr %52, i32 0, i32 0
  store i64 -1, ptr %53, align 8
  %54 = load ptr, ptr %7, align 8
  %55 = getelementptr inbounds %struct.la_zstream, ptr %54, i32 0, i32 6
  %56 = load ptr, ptr %11, align 8
  %57 = call i32 @lzma_properties_size(ptr noundef %55, ptr noundef %56) #10
  store i32 %57, ptr %13, align 4
  %58 = load i32, ptr %13, align 4
  %59 = icmp ne i32 %58, 0
  br i1 %59, label %60, label %65

60:                                               ; preds = %43
  %61 = load ptr, ptr %10, align 8
  call void @free(ptr noundef %61) #10
  %62 = load ptr, ptr %7, align 8
  %63 = getelementptr inbounds %struct.la_zstream, ptr %62, i32 0, i32 9
  store ptr null, ptr %63, align 8
  %64 = load ptr, ptr %6, align 8
  call void (ptr, i32, ptr, ...) @archive_set_error(ptr noundef %64, i32 noundef -1, ptr noundef @.str.36)
  store i32 -30, ptr %5, align 4
  br label %129

65:                                               ; preds = %43
  %66 = load ptr, ptr %7, align 8
  %67 = getelementptr inbounds %struct.la_zstream, ptr %66, i32 0, i32 6
  %68 = load i32, ptr %67, align 8
  %69 = icmp ne i32 %68, 0
  br i1 %69, label %70, label %101

70:                                               ; preds = %65
  %71 = load ptr, ptr %7, align 8
  %72 = getelementptr inbounds %struct.la_zstream, ptr %71, i32 0, i32 6
  %73 = load i32, ptr %72, align 8
  %74 = zext i32 %73 to i64
  %75 = call noalias ptr @malloc(i64 noundef %74) #12
  %76 = load ptr, ptr %7, align 8
  %77 = getelementptr inbounds %struct.la_zstream, ptr %76, i32 0, i32 7
  store ptr %75, ptr %77, align 8
  %78 = load ptr, ptr %7, align 8
  %79 = getelementptr inbounds %struct.la_zstream, ptr %78, i32 0, i32 7
  %80 = load ptr, ptr %79, align 8
  %81 = icmp eq ptr %80, null
  br i1 %81, label %82, label %87

82:                                               ; preds = %70
  %83 = load ptr, ptr %10, align 8
  call void @free(ptr noundef %83) #10
  %84 = load ptr, ptr %7, align 8
  %85 = getelementptr inbounds %struct.la_zstream, ptr %84, i32 0, i32 9
  store ptr null, ptr %85, align 8
  %86 = load ptr, ptr %6, align 8
  call void (ptr, i32, ptr, ...) @archive_set_error(ptr noundef %86, i32 noundef 12, ptr noundef @.str.37)
  store i32 -30, ptr %5, align 4
  br label %129

87:                                               ; preds = %70
  %88 = load ptr, ptr %11, align 8
  %89 = load ptr, ptr %7, align 8
  %90 = getelementptr inbounds %struct.la_zstream, ptr %89, i32 0, i32 7
  %91 = load ptr, ptr %90, align 8
  %92 = call i32 @lzma_properties_encode(ptr noundef %88, ptr noundef %91) #10
  store i32 %92, ptr %13, align 4
  %93 = load i32, ptr %13, align 4
  %94 = icmp ne i32 %93, 0
  br i1 %94, label %95, label %100

95:                                               ; preds = %87
  %96 = load ptr, ptr %10, align 8
  call void @free(ptr noundef %96) #10
  %97 = load ptr, ptr %7, align 8
  %98 = getelementptr inbounds %struct.la_zstream, ptr %97, i32 0, i32 9
  store ptr null, ptr %98, align 8
  %99 = load ptr, ptr %6, align 8
  call void (ptr, i32, ptr, ...) @archive_set_error(ptr noundef %99, i32 noundef -1, ptr noundef @.str.38)
  store i32 -30, ptr %5, align 4
  br label %129

100:                                              ; preds = %87
  br label %101

101:                                              ; preds = %100, %65
  %102 = load ptr, ptr %10, align 8
  call void @llvm.memcpy.p0.p0.i64(ptr align 8 %102, ptr align 8 @compression_init_encoder_lzma.lzma_init_data, i64 136, i1 false)
  %103 = load ptr, ptr %10, align 8
  %104 = load ptr, ptr %11, align 8
  %105 = call i32 @lzma_raw_encoder(ptr noundef %103, ptr noundef %104) #10
  store i32 %105, ptr %13, align 4
  %106 = load i32, ptr %13, align 4
  switch i32 %106, label %122 [
    i32 0, label %107
    i32 5, label %117
  ]

107:                                              ; preds = %101
  %108 = load ptr, ptr %10, align 8
  %109 = load ptr, ptr %7, align 8
  %110 = getelementptr inbounds %struct.la_zstream, ptr %109, i32 0, i32 9
  store ptr %108, ptr %110, align 8
  %111 = load ptr, ptr %7, align 8
  %112 = getelementptr inbounds %struct.la_zstream, ptr %111, i32 0, i32 8
  store i32 1, ptr %112, align 8
  %113 = load ptr, ptr %7, align 8
  %114 = getelementptr inbounds %struct.la_zstream, ptr %113, i32 0, i32 10
  store ptr @compression_code_lzma, ptr %114, align 8
  %115 = load ptr, ptr %7, align 8
  %116 = getelementptr inbounds %struct.la_zstream, ptr %115, i32 0, i32 11
  store ptr @compression_end_lzma, ptr %116, align 8
  store i32 0, ptr %13, align 4
  br label %127

117:                                              ; preds = %101
  %118 = load ptr, ptr %10, align 8
  call void @free(ptr noundef %118) #10
  %119 = load ptr, ptr %7, align 8
  %120 = getelementptr inbounds %struct.la_zstream, ptr %119, i32 0, i32 9
  store ptr null, ptr %120, align 8
  %121 = load ptr, ptr %6, align 8
  call void (ptr, i32, ptr, ...) @archive_set_error(ptr noundef %121, i32 noundef 12, ptr noundef @.str.39)
  store i32 -30, ptr %13, align 4
  br label %127

122:                                              ; preds = %101
  %123 = load ptr, ptr %10, align 8
  call void @free(ptr noundef %123) #10
  %124 = load ptr, ptr %7, align 8
  %125 = getelementptr inbounds %struct.la_zstream, ptr %124, i32 0, i32 9
  store ptr null, ptr %125, align 8
  %126 = load ptr, ptr %6, align 8
  call void (ptr, i32, ptr, ...) @archive_set_error(ptr noundef %126, i32 noundef -1, ptr noundef @.str.40)
  store i32 -30, ptr %13, align 4
  br label %127

127:                                              ; preds = %122, %117, %107
  %128 = load i32, ptr %13, align 4
  store i32 %128, ptr %5, align 4
  br label %129

129:                                              ; preds = %127, %95, %82, %60, %38, %26
  %130 = load i32, ptr %5, align 4
  ret i32 %130
}