; Function Attrs: nounwind uwtable
define internal fastcc range(i32 -30, 1) i32 @compression_init_encoder_lzma(ptr noundef %0, ptr noundef %1, i32 noundef %2, i64 noundef range(i64 33, 4611686018427387906) %3) unnamed_addr #0 {
  %5 = alloca %struct.lzma_options_lzma, align 8
  %6 = getelementptr inbounds nuw i8, ptr %1, i64 64
  %7 = load i32, ptr %6, align 8
  %.not = icmp eq i32 %7, 0
  br i1 %.not, label %14, label %compression_end.exit

compression_end.exit:                             ; preds = %4
  %8 = getelementptr inbounds nuw i8, ptr %1, i64 48
  store i32 0, ptr %8, align 8
  %9 = getelementptr inbounds nuw i8, ptr %1, i64 56
  %10 = load ptr, ptr %9, align 8
  tail call void @free(ptr noundef %10) #18
  store ptr null, ptr %9, align 8
  %11 = getelementptr inbounds nuw i8, ptr %1, i64 88
  %12 = load ptr, ptr %11, align 8
  %13 = tail call i32 %12(ptr noundef %0, ptr noundef nonnull %1) #18
  br label %14

14:                                               ; preds = %compression_end.exit, %4
  %15 = tail call noalias dereferenceable_or_null(168) ptr @calloc(i64 noundef 1, i64 noundef 168) #19
  %16 = icmp eq ptr %15, null
  br i1 %16, label %17, label %18

17:                                               ; preds = %14
  tail call void (ptr, i32, ptr, ...) @archive_set_error(ptr noundef %0, i32 noundef 12, ptr noundef nonnull @.str.35) #18
  br label %53

18:                                               ; preds = %14
  %19 = getelementptr inbounds nuw i8, ptr %15, i64 136
  %spec.store.select = tail call i32 @llvm.smin.i32(i32 %2, i32 9)
  %20 = call zeroext i8 @lzma_lzma_preset(ptr noundef nonnull %5, i32 noundef %spec.store.select) #18
  %.not54 = icmp eq i8 %20, 0
  br i1 %.not54, label %23, label %21

21:                                               ; preds = %18
  call void @free(ptr noundef nonnull %15) #18
  %22 = getelementptr inbounds nuw i8, ptr %1, i64 72
  store ptr null, ptr %22, align 8
  call void (ptr, i32, ptr, ...) @archive_set_error(ptr noundef %0, i32 noundef 12, ptr noundef nonnull @.str.30) #18
  br label %53

23:                                               ; preds = %18
  store i64 %3, ptr %19, align 8
  %24 = getelementptr inbounds nuw i8, ptr %15, i64 144
  store ptr %5, ptr %24, align 8
  %25 = getelementptr inbounds nuw i8, ptr %15, i64 152
  store i64 -1, ptr %25, align 8
  %26 = getelementptr inbounds nuw i8, ptr %1, i64 48
  %27 = call i32 @lzma_properties_size(ptr noundef nonnull %26, ptr noundef nonnull %19) #18
  %.not55 = icmp eq i32 %27, 0
  br i1 %.not55, label %30, label %28

28:                                               ; preds = %23
  call void @free(ptr noundef nonnull %15) #18
  %29 = getelementptr inbounds nuw i8, ptr %1, i64 72
  store ptr null, ptr %29, align 8
  call void (ptr, i32, ptr, ...) @archive_set_error(ptr noundef %0, i32 noundef -1, ptr noundef nonnull @.str.36) #18
  br label %53

30:                                               ; preds = %23
  %31 = load i32, ptr %26, align 8
  %.not56 = icmp eq i32 %31, 0
  br i1 %.not56, label %43, label %32

32:                                               ; preds = %30
  %33 = zext i32 %31 to i64
  %34 = call noalias ptr @malloc(i64 noundef %33) #22
  %35 = getelementptr inbounds nuw i8, ptr %1, i64 56
  store ptr %34, ptr %35, align 8
  %36 = icmp eq ptr %34, null
  br i1 %36, label %37, label %39

37:                                               ; preds = %32
  call void @free(ptr noundef nonnull %15) #18
  %38 = getelementptr inbounds nuw i8, ptr %1, i64 72
  store ptr null, ptr %38, align 8
  call void (ptr, i32, ptr, ...) @archive_set_error(ptr noundef %0, i32 noundef 12, ptr noundef nonnull @.str.37) #18
  br label %53

39:                                               ; preds = %32
  %40 = call i32 @lzma_properties_encode(ptr noundef nonnull %19, ptr noundef nonnull %34) #18
  %.not57 = icmp eq i32 %40, 0
  br i1 %.not57, label %43, label %41

41:                                               ; preds = %39
  call void @free(ptr noundef nonnull %15) #18
  %42 = getelementptr inbounds nuw i8, ptr %1, i64 72
  store ptr null, ptr %42, align 8
  call void (ptr, i32, ptr, ...) @archive_set_error(ptr noundef %0, i32 noundef -1, ptr noundef nonnull @.str.38) #18
  br label %53

43:                                               ; preds = %39, %30
  call void @llvm.memset.p0.i64(ptr noundef nonnull align 8 dereferenceable(136) %15, i8 0, i64 136, i1 false)
  %44 = call i32 @lzma_raw_encoder(ptr noundef nonnull %15, ptr noundef nonnull %19) #18
  switch i32 %44, label %51 [
    i32 0, label %45
    i32 5, label %49
  ]

45:                                               ; preds = %43
  %46 = getelementptr inbounds nuw i8, ptr %1, i64 72
  store ptr %15, ptr %46, align 8
  store i32 1, ptr %6, align 8
  %47 = getelementptr inbounds nuw i8, ptr %1, i64 80
  store ptr @compression_code_lzma, ptr %47, align 8
  %48 = getelementptr inbounds nuw i8, ptr %1, i64 88
  store ptr @compression_end_lzma, ptr %48, align 8
  br label %53

49:                                               ; preds = %43
  call void @free(ptr noundef nonnull %15) #18
  %50 = getelementptr inbounds nuw i8, ptr %1, i64 72
  store ptr null, ptr %50, align 8
  call void (ptr, i32, ptr, ...) @archive_set_error(ptr noundef %0, i32 noundef 12, ptr noundef nonnull @.str.39) #18
  br label %53

51:                                               ; preds = %43
  call void @free(ptr noundef nonnull %15) #18
  %52 = getelementptr inbounds nuw i8, ptr %1, i64 72
  store ptr null, ptr %52, align 8
  call void (ptr, i32, ptr, ...) @archive_set_error(ptr noundef %0, i32 noundef -1, ptr noundef nonnull @.str.40) #18
  br label %53

53:                                               ; preds = %45, %49, %51, %41, %37, %28, %21, %17
  %.050 = phi i32 [ -30, %17 ], [ -30, %21 ], [ -30, %28 ], [ -30, %37 ], [ -30, %41 ], [ -30, %51 ], [ -30, %49 ], [ 0, %45 ]
  ret i32 %.050
}